target datalayout = "e-m:e-p270:32:32-p271:32:32-p272:64:64-i64:64-i128:128-f80:128-n8:16:32:64-S128"
target triple = "x86_64-unknown-linux-gnu"

%struct.MACAddr = type { [6 x i8] }
%struct.of_dpa_flow = type { i32, i32, i32, i32, i64, %struct.of_dpa_flow_key, %struct.of_dpa_flow_key, %struct.of_dpa_flow_action, %struct.anon.13 }
%struct.of_dpa_flow_key = type { i32, i32, i32, %struct.anon, %struct.anon.0, %union.anon, i32 }
%struct.anon = type { i16, %struct.MACAddr, %struct.MACAddr, i16 }
%struct.anon.0 = type { i8, i8, i8, i8 }
%union.anon = type { %struct.anon.6 }
%struct.anon.6 = type { %struct.anon.7, i32, %struct.anon.9, %struct.anon.10 }
%struct.anon.7 = type { %struct.ipv6_addr, %struct.ipv6_addr }
%struct.ipv6_addr = type { %union.anon.8 }
%union.anon.8 = type { [4 x i32] }
%struct.anon.9 = type { i16, i16, i16 }
%struct.anon.10 = type { %struct.ipv6_addr, %struct.MACAddr, %struct.MACAddr }
%struct.of_dpa_flow_action = type { i32, %struct.anon.11, %struct.anon.12 }
%struct.anon.11 = type { i32, i32, i16 }
%struct.anon.12 = type { i16, i32, i8, i16 }
%struct.anon.13 = type { i64, i64, i64, i64, i64 }

; Function Attrs: nounwind sspstrong uwtable
define internal i32 @lduw_he_p(ptr noundef %ptr) #0 {
entry:
  %ptr.addr = alloca ptr, align 8
  %r = alloca i16, align 2
  store ptr %ptr, ptr %ptr.addr, align 8
  %0 = load ptr, ptr %ptr.addr, align 8
  call void @llvm.memcpy.p0.p0.i64(ptr align 2 %r, ptr align 1 %0, i64 2, i1 false)
  %1 = load i16, ptr %r, align 2
  %conv = zext i16 %1 to i32
  ret i32 %conv
}

; Function Attrs: nounwind sspstrong uwtable
define internal i32 @ldl_he_p(ptr noundef %ptr) #0 {
entry:
  %ptr.addr = alloca ptr, align 8
  %r = alloca i32, align 4
  store ptr %ptr, ptr %ptr.addr, align 8
  %0 = load ptr, ptr %ptr.addr, align 8
  call void @llvm.memcpy.p0.p0.i64(ptr align 4 %r, ptr align 1 %0, i64 4, i1 false)
  %1 = load i32, ptr %r, align 4
  ret i32 %1
}

; Function Attrs: nounwind sspstrong uwtable
define internal i32 @lduw_le_p(ptr noundef %ptr) #0 {
entry:
  %ptr.addr = alloca ptr, align 8
  store ptr %ptr, ptr %ptr.addr, align 8
  %0 = load ptr, ptr %ptr.addr, align 8
  %call = call i32 @lduw_he_p(ptr noundef %0)
  %conv = trunc i32 %call to i16
  %conv1 = zext i16 %conv to i32
  ret i32 %conv1
}

; Function Attrs: nounwind sspstrong uwtable
define internal i32 @ldl_le_p(ptr noundef %ptr) #0 {
entry:
  %ptr.addr = alloca ptr, align 8
  store ptr %ptr, ptr %ptr.addr, align 8
  %0 = load ptr, ptr %ptr.addr, align 8
  %call = call i32 @ldl_he_p(ptr noundef %0)
  ret i32 %call
}

; Function Attrs: nounwind sspstrong uwtable
define internal ptr @rocker_tlv_data(ptr noundef %tlv) #0 {
entry:
  %tlv.addr = alloca ptr, align 8
  store ptr %tlv, ptr %tlv.addr, align 8
  %0 = load ptr, ptr %tlv.addr, align 8
  %add.ptr = getelementptr i8, ptr %0, i64 8
  ret ptr %add.ptr
}

; Function Attrs: nounwind sspstrong uwtable
define internal zeroext i16 @rocker_tlv_get_le16(ptr noundef %tlv) #0 {
entry:
  %tlv.addr = alloca ptr, align 8
  store ptr %tlv, ptr %tlv.addr, align 8
  %0 = load ptr, ptr %tlv.addr, align 8
  %call = call ptr @rocker_tlv_data(ptr noundef %0)
  %call1 = call i32 @lduw_le_p(ptr noundef %call)
  %conv = trunc i32 %call1 to i16
  ret i16 %conv
}

; Function Attrs: nounwind sspstrong uwtable
define internal i32 @rocker_tlv_get_le32(ptr noundef %tlv) #0 {
entry:
  %tlv.addr = alloca ptr, align 8
  store ptr %tlv, ptr %tlv.addr, align 8
  %0 = load ptr, ptr %tlv.addr, align 8
  %call = call ptr @rocker_tlv_data(ptr noundef %0)
  %call1 = call i32 @ldl_le_p(ptr noundef %call)
  ret i32 %call1
}

; Function Attrs: nounwind sspstrong uwtable
define internal i32 @of_dpa_cmd_add_ig_port(ptr noundef %flow, ptr noundef %flow_tlvs) #0 {
entry:
  %retval = alloca i32, align 4
  %flow.addr = alloca ptr, align 8
  %flow_tlvs.addr = alloca ptr, align 8
  %key = alloca ptr, align 8
  %mask = alloca ptr, align 8
  %action = alloca ptr, align 8
  %overlay_tunnel = alloca i8, align 1
  store ptr %flow, ptr %flow.addr, align 8
  store ptr %flow_tlvs, ptr %flow_tlvs.addr, align 8
  %0 = load ptr, ptr %flow.addr, align 8
  %key1 = getelementptr inbounds %struct.of_dpa_flow, ptr %0, i32 0, i32 5
  store ptr %key1, ptr %key, align 8
  %1 = load ptr, ptr %flow.addr, align 8
  %mask2 = getelementptr inbounds %struct.of_dpa_flow, ptr %1, i32 0, i32 6
  store ptr %mask2, ptr %mask, align 8
  %2 = load ptr, ptr %flow.addr, align 8
  %action3 = getelementptr inbounds %struct.of_dpa_flow, ptr %2, i32 0, i32 7
  store ptr %action3, ptr %action, align 8
  %3 = load ptr, ptr %flow_tlvs.addr, align 8
  %arrayidx = getelementptr ptr, ptr %3, i64 6
  %4 = load ptr, ptr %arrayidx, align 8
  %tobool = icmp ne ptr %4, null
  br i1 %tobool, label %lor.lhs.false, label %if.then

lor.lhs.false:                                    ; preds = %entry
  %5 = load ptr, ptr %flow_tlvs.addr, align 8
  %arrayidx4 = getelementptr ptr, ptr %5, i64 9
  %6 = load ptr, ptr %arrayidx4, align 8
  %tobool5 = icmp ne ptr %6, null
  br i1 %tobool5, label %if.end, label %if.then

if.then:                                          ; preds = %lor.lhs.false, %entry
  store i32 -22, ptr %retval, align 4
  br label %return

if.end:                                           ; preds = %lor.lhs.false
  %7 = load ptr, ptr %key, align 8
  %tbl_id = getelementptr inbounds %struct.of_dpa_flow_key, ptr %7, i32 0, i32 2
  store i32 0, ptr %tbl_id, align 4
  %8 = load ptr, ptr %key, align 8
  %width = getelementptr inbounds %struct.of_dpa_flow_key, ptr %8, i32 0, i32 6
  store i32 2, ptr %width, align 4
  %9 = load ptr, ptr %flow_tlvs.addr, align 8
  %arrayidx6 = getelementptr ptr, ptr %9, i64 6
  %10 = load ptr, ptr %arrayidx6, align 8
  %call = call i32 @rocker_tlv_get_le32(ptr noundef %10)
  %11 = load ptr, ptr %key, align 8
  %in_pport = getelementptr inbounds %struct.of_dpa_flow_key, ptr %11, i32 0, i32 0
  store i32 %call, ptr %in_pport, align 4
  %12 = load ptr, ptr %flow_tlvs.addr, align 8
  %arrayidx7 = getelementptr ptr, ptr %12, i64 7
  %13 = load ptr, ptr %arrayidx7, align 8
  %tobool8 = icmp ne ptr %13, null
  br i1 %tobool8, label %if.then9, label %if.end13

if.then9:                                         ; preds = %if.end
  %14 = load ptr, ptr %flow_tlvs.addr, align 8
  %arrayidx10 = getelementptr ptr, ptr %14, i64 7
  %15 = load ptr, ptr %arrayidx10, align 8
  %call11 = call i32 @rocker_tlv_get_le32(ptr noundef %15)
  %16 = load ptr, ptr %mask, align 8
  %in_pport12 = getelementptr inbounds %struct.of_dpa_flow_key, ptr %16, i32 0, i32 0
  store i32 %call11, ptr %in_pport12, align 4
  br label %if.end13

if.end13:                                         ; preds = %if.then9, %if.end
  %17 = load ptr, ptr %key, align 8
  %in_pport14 = getelementptr inbounds %struct.of_dpa_flow_key, ptr %17, i32 0, i32 0
  %18 = load i32, ptr %in_pport14, align 4
  %and = and i32 %18, 65536
  %tobool15 = icmp ne i32 %and, 0
  %lnot = xor i1 %tobool15, true
  %lnot16 = xor i1 %lnot, true
  %frombool = zext i1 %lnot16 to i8
  store i8 %frombool, ptr %overlay_tunnel, align 1
  %19 = load ptr, ptr %flow_tlvs.addr, align 8
  %arrayidx17 = getelementptr ptr, ptr %19, i64 9
  %20 = load ptr, ptr %arrayidx17, align 8
  %call18 = call zeroext i16 @rocker_tlv_get_le16(ptr noundef %20)
  %conv = zext i16 %call18 to i32
  %21 = load ptr, ptr %action, align 8
  %goto_tbl = getelementptr inbounds %struct.of_dpa_flow_action, ptr %21, i32 0, i32 0
  store i32 %conv, ptr %goto_tbl, align 4
  %22 = load i8, ptr %overlay_tunnel, align 1
  %tobool19 = trunc i8 %22 to i1
  br i1 %tobool19, label %if.end23, label %land.lhs.true

land.lhs.true:                                    ; preds = %if.end13
  %23 = load ptr, ptr %action, align 8
  %goto_tbl20 = getelementptr inbounds %struct.of_dpa_flow_action, ptr %23, i32 0, i32 0
  %24 = load i32, ptr %goto_tbl20, align 4
  %cmp = icmp ne i32 %24, 10
  br i1 %cmp, label %if.then22, label %if.end23

if.then22:                                        ; preds = %land.lhs.true
  store i32 -22, ptr %retval, align 4
  br label %return

if.end23:                                         ; preds = %land.lhs.true, %if.end13
  %25 = load i8, ptr %overlay_tunnel, align 1
  %tobool24 = trunc i8 %25 to i1
  br i1 %tobool24, label %land.lhs.true26, label %if.end31

land.lhs.true26:                                  ; preds = %if.end23
  %26 = load ptr, ptr %action, align 8
  %goto_tbl27 = getelementptr inbounds %struct.of_dpa_flow_action, ptr %26, i32 0, i32 0
  %27 = load i32, ptr %goto_tbl27, align 4
  %cmp28 = icmp ne i32 %27, 50
  br i1 %cmp28, label %if.then30, label %if.end31

if.then30:                                        ; preds = %land.lhs.true26
  store i32 -22, ptr %retval, align 4
  br label %return

if.end31:                                         ; preds = %land.lhs.true26, %if.end23
  store i32 0, ptr %retval, align 4
  br label %return

return:                                           ; preds = %if.end31, %if.then30, %if.then22, %if.then
  %28 = load i32, ptr %retval, align 4
  ret i32 %28
}