; Function Attrs: mustprogress nofree norecurse nosync nounwind sspstrong willreturn memory(read, argmem: readwrite, inaccessiblemem: none) uwtable
define internal fastcc range(i32 -22, 1) i32 @of_dpa_cmd_add_ig_port(ptr noundef writeonly captures(none) %flow, ptr noundef nonnull readonly captures(none) %flow_tlvs) unnamed_addr #11 {
entry:
  %key1 = getelementptr inbounds nuw i8, ptr %flow, i64 24
  %mask2 = getelementptr inbounds nuw i8, ptr %flow, i64 132
  %action3 = getelementptr inbounds nuw i8, ptr %flow, i64 240
  %arrayidx = getelementptr i8, ptr %flow_tlvs, i64 48
  %0 = load ptr, ptr %arrayidx, align 8
  %tobool.not = icmp eq ptr %0, null
  br i1 %tobool.not, label %return, label %lor.lhs.false

lor.lhs.false:                                    ; preds = %entry
  %arrayidx4 = getelementptr i8, ptr %flow_tlvs, i64 72
  %1 = load ptr, ptr %arrayidx4, align 8
  %tobool5.not = icmp eq ptr %1, null
  br i1 %tobool5.not, label %return, label %if.end

if.end:                                           ; preds = %lor.lhs.false
  %tbl_id = getelementptr inbounds nuw i8, ptr %flow, i64 32
  store i32 0, ptr %tbl_id, align 4
  %width = getelementptr inbounds nuw i8, ptr %flow, i64 128
  store i32 2, ptr %width, align 4
  %2 = load ptr, ptr %arrayidx, align 8
  %3 = getelementptr i8, ptr %2, i64 8
  %.val15 = load i32, ptr %3, align 1
  store i32 %.val15, ptr %key1, align 4
  %arrayidx7 = getelementptr i8, ptr %flow_tlvs, i64 56
  %4 = load ptr, ptr %arrayidx7, align 8
  %tobool8.not = icmp eq ptr %4, null
  br i1 %tobool8.not, label %if.end13, label %if.then9

if.then9:                                         ; preds = %if.end
  %5 = getelementptr i8, ptr %4, i64 8
  %.val14 = load i32, ptr %5, align 1
  store i32 %.val14, ptr %mask2, align 4
  br label %if.end13

if.end13:                                         ; preds = %if.then9, %if.end
  %and = and i32 %.val15, 65536
  %tobool15.not.not = icmp eq i32 %and, 0
  %6 = load ptr, ptr %arrayidx4, align 8
  %7 = getelementptr i8, ptr %6, i64 8
  %.val = load i16, ptr %7, align 1
  %conv = zext i16 %.val to i32
  store i32 %conv, ptr %action3, align 4
  %or.cond17.v = select i1 %tobool15.not.not, i16 10, i16 50
  %or.cond17 = icmp eq i16 %.val, %or.cond17.v
  %spec.select = select i1 %or.cond17, i32 0, i32 -22
  br label %return

return:                                           ; preds = %if.end13, %entry, %lor.lhs.false
  %retval.0 = phi i32 [ -22, %lor.lhs.false ], [ -22, %entry ], [ %spec.select, %if.end13 ]
  ret i32 %retval.0
}